ccopy_reg
_reconstructor
p0
(cpandas.core.frame
DataFrame
p1
c__builtin__
object
p2
Ntp3
Rp4
(dp5
S'_metadata'
p6
(lp7
sS'_typ'
p8
S'dataframe'
p9
sS'_data'
p10
g0
(cpandas.core.internals
BlockManager
p11
g2
Ntp12
Rp13
((lp14
cpandas.indexes.base
_new_Index
p15
(cpandas.indexes.base
Index
p16
(dp17
S'data'
p18
cnumpy.core.multiarray
_reconstruct
p19
(cnumpy
ndarray
p20
(I0
tp21
S'b'
p22
tp23
Rp24
(I1
(L26L
tp25
cnumpy
dtype
p26
(S'O8'
p27
I0
I1
tp28
Rp29
(I3
S'|'
p30
NNNI-1
I-1
I63
tp31
bI00
(lp32
S'TranID'
p33
aS'Year'
p34
aS'Team_1'
p35
aS'Team_2'
p36
aS'Trade_Value_Diff'
p37
aS'WAR_Sum_1'
p38
aS'WAR_Sum_2'
p39
aS'Num_Players_1'
p40
aS'Num_Players_2'
p41
aS'Ages_1'
p42
aS'Ages_2'
p43
aS'Num_Player_Trades_1'
p44
aS'Num_Player_Trades_2'
p45
aS'Rank_1'
p46
aS'Rank_2'
p47
aS'Num_Trades_Team_1'
p48
aS'Num_Trades_Team_2'
p49
aS'Salary_Diff'
p50
aS'allstar_1'
p51
aS'allstar_2'
p52
aS'Num_Pitchers_1'
p53
aS'Num_Pitchers_2'
p54
aS'Num_Batters_1'
p55
aS'Num_Batters_2'
p56
aS'Manager1_Score'
p57
aS'Manager2_Score'
p58
atp59
bsS'name'
p60
Nstp61
Rp62
ag15
(g16
(dp63
g18
g19
(g20
(I0
tp64
g22
tp65
Rp66
(I1
(L0L
tp67
g29
I00
(lp68
tp69
bsg60
Nstp70
Rp71
a(lp72
g19
(g20
(I0
tp73
g22
tp74
Rp75
(I1
(L26L
L0L
tp76
g29
I00
(lp77
tp78
ba(lp79
g15
(g16
(dp80
g18
g19
(g20
(I0
tp81
g22
tp82
Rp83
(I1
(L26L
tp84
g29
I00
(lp85
g33
ag34
ag35
ag36
ag37
ag38
ag39
ag40
ag41
ag42
ag43
ag44
ag45
ag46
ag47
ag48
ag49
ag50
ag51
ag52
ag53
ag54
ag55
ag56
ag57
ag58
atp86
bsg60
Nstp87
Rp88
a(dp89
S'0.14.1'
p90
(dp91
S'axes'
p92
g14
sS'blocks'
p93
(lp94
(dp95
S'mgr_locs'
p96
c__builtin__
slice
p97
(I0
I26
L1L
tp98
Rp99
sS'values'
p100
g75
sasstp101
bsb.